target datalayout = "e-m:e-p270:32:32-p271:32:32-p272:64:64-i64:64-i128:128-f80:128-n8:16:32:64-S128"
target triple = "x86_64-pc-linux-gnu"

%struct.MyData = type { ptr, i64, i64 }

; Function Attrs: nounwind uwtable
define internal i64 @MySeek(ptr noundef %0, i64 noundef %1, i32 noundef %2) #0 {
  %4 = alloca i64, align 8
  %5 = alloca ptr, align 8
  %6 = alloca i64, align 8
  %7 = alloca i32, align 4
  %8 = alloca ptr, align 8
  %9 = alloca i32, align 4
  store ptr %0, ptr %5, align 8, !tbaa !37
  store i64 %1, ptr %6, align 8, !tbaa !9
  store i32 %2, ptr %7, align 4, !tbaa !13
  call void @llvm.lifetime.start.p0(i64 8, ptr %8) #6
  %10 = load ptr, ptr %5, align 8, !tbaa !37
  store ptr %10, ptr %8, align 8, !tbaa !37
  %11 = load i32, ptr %7, align 4, !tbaa !13
  %12 = icmp eq i32 %11, 1
  br i1 %12, label %13, label %17

13:                                               ; preds = %3
  %14 = load ptr, ptr %8, align 8, !tbaa !37
  %15 = getelementptr inbounds nuw %struct.MyData, ptr %14, i32 0, i32 2
  %16 = load i64, ptr %15, align 8, !tbaa !20
  br label %27

17:                                               ; preds = %3
  %18 = load i32, ptr %7, align 4, !tbaa !13
  %19 = icmp eq i32 %18, 0
  br i1 %19, label %20, label %21

20:                                               ; preds = %17
  br label %25

21:                                               ; preds = %17
  %22 = load ptr, ptr %8, align 8, !tbaa !37
  %23 = getelementptr inbounds nuw %struct.MyData, ptr %22, i32 0, i32 1
  %24 = load i64, ptr %23, align 8, !tbaa !19
  br label %25

25:                                               ; preds = %21, %20
  %26 = phi i64 [ 0, %20 ], [ %24, %21 ]
  br label %27

27:                                               ; preds = %25, %13
  %28 = phi i64 [ %16, %13 ], [ %26, %25 ]
  %29 = load i64, ptr %6, align 8, !tbaa !9
  %30 = add i64 %29, %28
  store i64 %30, ptr %6, align 8, !tbaa !9
  %31 = load i64, ptr %6, align 8, !tbaa !9
  %32 = load ptr, ptr %8, align 8, !tbaa !37
  %33 = getelementptr inbounds nuw %struct.MyData, ptr %32, i32 0, i32 1
  %34 = load i64, ptr %33, align 8, !tbaa !19
  %35 = icmp ugt i64 %31, %34
  br i1 %35, label %36, label %37

36:                                               ; preds = %27
  store i64 -1, ptr %4, align 8
  store i32 1, ptr %9, align 4
  br label %42

37:                                               ; preds = %27
  %38 = load i64, ptr %6, align 8, !tbaa !9
  %39 = load ptr, ptr %8, align 8, !tbaa !37
  %40 = getelementptr inbounds nuw %struct.MyData, ptr %39, i32 0, i32 2
  store i64 %38, ptr %40, align 8, !tbaa !20
  %41 = load i64, ptr %6, align 8, !tbaa !9
  store i64 %41, ptr %4, align 8
  store i32 1, ptr %9, align 4
  br label %42

42:                                               ; preds = %37, %36
  call void @llvm.lifetime.end.p0(i64 8, ptr %8) #6
  %43 = load i64, ptr %4, align 8
  ret i64 %43
}