; Function Attrs: mustprogress nofree norecurse nosync nounwind willreturn memory(argmem: readwrite) uwtable
define internal i64 @MySeek(ptr noundef captures(none) %0, i64 noundef %1, i32 noundef %2) #4 {
  switch i32 %2, label %4 [
    i32 1, label %.sink.split
    i32 0, label %7
  ]

4:                                                ; preds = %3
  br label %.sink.split

.sink.split:                                      ; preds = %3, %4
  %.sink13 = phi i64 [ 8, %4 ], [ 16, %3 ]
  %5 = getelementptr inbounds nuw i8, ptr %0, i64 %.sink13
  %6 = load i64, ptr %5, align 8, !tbaa !36
  br label %7

7:                                                ; preds = %.sink.split, %3
  %8 = phi i64 [ 0, %3 ], [ %6, %.sink.split ]
  %9 = add i64 %8, %1
  %10 = getelementptr inbounds nuw i8, ptr %0, i64 8
  %11 = load i64, ptr %10, align 8, !tbaa !11
  %12 = icmp ugt i64 %9, %11
  br i1 %12, label %15, label %13

13:                                               ; preds = %7
  %14 = getelementptr inbounds nuw i8, ptr %0, i64 16
  store i64 %9, ptr %14, align 8, !tbaa !12
  br label %15

15:                                               ; preds = %7, %13
  %.0 = phi i64 [ %9, %13 ], [ -1, %7 ]
  ret i64 %.0
}